target datalayout = "e-m:e-p270:32:32-p271:32:32-p272:64:64-i64:64-i128:128-f80:128-n8:16:32:64-S128"
target triple = "x86_64-pc-linux-gnu"

%struct.__va_list_tag = type { i32, i32, ptr, ptr }

@die_routine = internal global ptr @die_builtin, align 8
@die_is_recursing = internal global ptr @die_is_recursing_builtin, align 8
@.str.2 = private unnamed_addr constant [42 x i8] c"fatal: recursion detected in die handler\0A\00", align 1
@stderr = external global ptr, align 8
@.str.3 = private unnamed_addr constant [8 x i8] c"usage.c\00", align 1

; Function Attrs: noreturn nounwind uwtable
define dso_local void @die(ptr noundef %0, ...) #1 {
  %2 = alloca ptr, align 8
  %3 = alloca [1 x %struct.__va_list_tag], align 16
  store ptr %0, ptr %2, align 8, !tbaa !8
  call void @llvm.lifetime.start.p0(i64 24, ptr %3) #11
  %4 = load ptr, ptr @die_is_recursing, align 8, !tbaa !4
  %5 = call i32 %4()
  %6 = icmp ne i32 %5, 0
  br i1 %6, label %7, label %11

7:                                                ; preds = %1
  %8 = load ptr, ptr @stderr, align 8, !tbaa !14
  %9 = call i32 @fputs(ptr noundef @.str.2, ptr noundef %8)
  %10 = call i32 @common_exit(ptr noundef @.str.3, i32 noundef 203, i32 noundef 128)
  call void @exit(i32 noundef %10) #14
  unreachable

11:                                               ; preds = %1
  %12 = getelementptr inbounds [1 x %struct.__va_list_tag], ptr %3, i64 0, i64 0
  call void @llvm.va_start.p0(ptr %12)
  %13 = load ptr, ptr @die_routine, align 8, !tbaa !4
  %14 = load ptr, ptr %2, align 8, !tbaa !8
  %15 = getelementptr inbounds [1 x %struct.__va_list_tag], ptr %3, i64 0, i64 0
  call void %13(ptr noundef %14, ptr noundef %15) #12
  unreachable
}