; Function Attrs: noreturn nounwind uwtable
define dso_local void @die(ptr noundef %0, ...) local_unnamed_addr #3 {
  %2 = alloca [1 x %struct.__va_list_tag], align 16
  call void @llvm.lifetime.start.p0(i64 24, ptr nonnull %2) #17
  %3 = load ptr, ptr @die_is_recursing, align 8, !tbaa !4
  %4 = tail call i32 %3() #17
  %.not = icmp eq i32 %4, 0
  br i1 %.not, label %9, label %5

5:                                                ; preds = %1
  %6 = load ptr, ptr @stderr, align 8, !tbaa !10
  %7 = tail call i64 @fwrite(ptr nonnull @.str.2, i64 41, i64 1, ptr %6) #20
  %8 = tail call i32 @common_exit(ptr noundef nonnull @.str.3, i32 noundef 203, i32 noundef 128) #17
  tail call void @exit(i32 noundef %8) #19
  unreachable

9:                                                ; preds = %1
  call void @llvm.va_start.p0(ptr nonnull %2)
  %10 = load ptr, ptr @die_routine, align 8, !tbaa !4
  call void %10(ptr noundef %0, ptr noundef nonnull %2) #19
  unreachable
}